Certificate:
    Data:
        Version: 3 (0x2)
        Serial Number: 3 (0x3)
    Signature Algorithm: sha256WithRSAEncryption
        Issuer: C=PT, ST=Portugal, L=LX, O=mtc\xC3\x82\xC2\xB4, OU=mtc, CN=mtc/emailAddress=mtc
        Validity
            Not Before: Jun 27 14:09:15 2018 GMT
            Not After : Jun 27 14:09:15 2019 GMT
        Subject: C=PT, ST=LX, L=LX, O=LX, OU=MTC, CN=MTC/emailAddress=user2@test
        Subject Public Key Info:
            Public Key Algorithm: rsaEncryption
                Public-Key: (2048 bit)
                Modulus:
                    00:ae:43:c7:a5:27:f6:92:6f:b9:bb:90:28:5b:40:
                    f8:da:e9:e3:14:6c:56:e5:74:10:39:fd:9d:44:11:
                    5f:94:45:9f:cf:73:b5:eb:dc:2c:59:42:de:9b:23:
                    df:7c:ff:0a:a7:5d:eb:4f:af:30:7a:2f:50:38:3d:
                    f3:7b:b9:d1:ea:43:43:94:6b:90:44:18:ed:e4:dc:
                    4d:4c:91:c9:41:31:8a:db:4a:c6:11:95:ce:0e:40:
                    62:d1:c9:c4:0f:4c:9a:75:ac:75:b7:f7:bd:b9:e5:
                    b3:ca:d2:15:ba:b8:ef:c2:6a:9b:04:25:d7:81:88:
                    9d:d9:20:f5:99:47:9b:ba:9e:e4:2c:54:d0:9b:e2:
                    2a:22:35:e6:56:da:93:cd:88:80:8c:15:12:3c:ea:
                    80:a3:74:07:cc:11:64:f9:fa:c5:b0:0d:0b:f8:50:
                    e5:3d:2b:13:45:ba:98:b3:75:4d:e8:c2:03:fa:cb:
                    b9:e9:8c:2c:d9:09:12:0b:b0:9e:d1:27:c5:26:cc:
                    19:5c:57:15:7d:a4:f9:da:67:bb:89:4d:0e:76:10:
                    74:67:dc:d2:15:62:7b:48:f5:ac:a0:17:ed:31:bc:
                    f7:26:17:01:60:4e:6a:41:41:c3:12:7c:73:78:50:
                    cd:7d:01:ad:45:81:96:9f:b6:32:95:bc:02:e9:b1:
                    5b:83
                Exponent: 65537 (0x10001)
        X509v3 extensions:
            X509v3 Basic Constraints: 
                CA:FALSE
            Netscape Comment: 
                OpenSSL Generated Certificate
            X509v3 Subject Key Identifier: 
                A2:3C:93:94:58:B5:F1:F0:E8:4B:C7:EA:26:8F:3C:86:0B:B3:11:0B
            X509v3 Authority Key Identifier: 
                keyid:4D:E3:12:44:3A:D1:CD:1D:99:45:0B:B0:6D:FB:E6:72:F9:76:44:50

    Signature Algorithm: sha256WithRSAEncryption
         84:ac:3a:b3:47:62:e3:3d:49:08:2b:82:08:8f:eb:ef:a3:a8:
         1f:a6:0f:4f:12:ba:e5:71:40:23:b2:bb:87:6e:41:36:a3:45:
         7b:b0:57:e3:33:d1:9b:40:a9:3a:33:c8:c4:5d:d4:02:46:20:
         01:99:52:75:c5:9c:58:ef:3a:76:4d:a7:45:44:19:99:a2:22:
         48:97:ac:21:be:a3:5c:c4:3a:f1:a8:88:e2:52:4e:9a:4d:6b:
         79:69:ac:5f:b8:75:50:19:6d:47:2d:de:35:1f:01:d7:3f:aa:
         fa:de:95:40:cd:5f:e2:58:6e:51:51:b4:42:ab:06:a7:b8:0b:
         8f:ba
-----BEGIN CERTIFICATE-----
MIIDTzCCArigAwIBAgIBAzANBgkqhkiG9w0BAQsFADBvMQswCQYDVQQGEwJQVDER
MA8GA1UECAwIUG9ydHVnYWwxCzAJBgNVBAcMAkxYMRAwDgYDVQQKDAdtdGPDgsK0
MQwwCgYDVQQLDANtdGMxDDAKBgNVBAMMA210YzESMBAGCSqGSIb3DQEJARYDbXRj
MB4XDTE4MDYyNzE0MDkxNVoXDTE5MDYyNzE0MDkxNVowazELMAkGA1UEBhMCUFQx
CzAJBgNVBAgMAkxYMQswCQYDVQQHDAJMWDELMAkGA1UECgwCTFgxDDAKBgNVBAsM
A01UQzEMMAoGA1UEAwwDTVRDMRkwFwYJKoZIhvcNAQkBFgp1c2VyMkB0ZXN0MIIB
IjANBgkqhkiG9w0BAQEFAAOCAQ8AMIIBCgKCAQEArkPHpSf2km+5u5AoW0D42unj
FGxW5XQQOf2dRBFflEWfz3O169wsWULemyPffP8Kp13rT68wei9QOD3ze7nR6kND
lGuQRBjt5NxNTJHJQTGK20rGEZXODkBi0cnED0yadax1t/e9ueWzytIVurjvwmqb
BCXXgYid2SD1mUebup7kLFTQm+IqIjXmVtqTzYiAjBUSPOqAo3QHzBFk+frFsA0L
+FDlPSsTRbqYs3VN6MID+su56Yws2QkSC7Ce0SfFJswZXFcVfaT52me7iU0OdhB0
Z9zSFWJ7SPWsoBftMbz3JhcBYE5qQUHDEnxzeFDNfQGtRYGWn7YylbwC6bFbgwID
AQABo3sweTAJBgNVHRMEAjAAMCwGCWCGSAGG+EIBDQQfFh1PcGVuU1NMIEdlbmVy
YXRlZCBDZXJ0aWZpY2F0ZTAdBgNVHQ4EFgQUojyTlFi18fDoS8fqJo88hguzEQsw
HwYDVR0jBBgwFoAUTeMSRDrRzR2ZRQuwbfvmcvl2RFAwDQYJKoZIhvcNAQELBQAD
gYEAhKw6s0di4z1JCCuCCI/r76OoH6YPTxK65XFAI7K7h25BNqNFe7BX4zPRm0Cp
OjPIxF3UAkYgAZlSdcWcWO86dk2nRUQZmaIiSJesIb6jXMQ68aiI4lJOmk1reWms
X7h1UBltRy3eNR8B1z+q+t6VQM1f4lhuUVG0QqsGp7gLj7o=
-----END CERTIFICATE-----
