Certificate:
    Data:
        Version: 3 (0x2)
        Serial Number: 5 (0x5)
    Signature Algorithm: sha256WithRSAEncryption
        Issuer: C=PT, ST=Portugal, L=LX, O=mtc\xC3\x82\xC2\xB4, OU=mtc, CN=mtc/emailAddress=mtc
        Validity
            Not Before: Jul  9 12:27:08 2018 GMT
            Not After : Jul  9 12:27:08 2019 GMT
        Subject: C=aa, ST=aa, L=aa, O=aa, OU=aa, CN=aa/emailAddress=aa
        Subject Public Key Info:
            Public Key Algorithm: rsaEncryption
                Public-Key: (2048 bit)
                Modulus:
                    00:a1:d1:86:41:fe:d7:b4:7f:28:1e:b0:dc:23:b7:
                    01:11:66:8d:0c:ff:19:e9:c2:42:f6:7d:d4:18:02:
                    79:ba:74:a0:2f:81:26:23:2f:72:ec:ec:e6:fe:82:
                    55:44:5c:77:ef:06:a5:93:87:87:8c:4a:cb:41:fe:
                    bc:20:9f:b8:6f:91:91:c6:ff:de:e3:23:0c:1c:cb:
                    75:34:4e:af:6e:9b:0d:44:91:8b:65:ec:24:11:01:
                    a2:8c:76:51:9c:de:97:8d:16:f9:fa:80:df:2f:05:
                    43:8c:3d:12:1b:4c:18:75:13:47:e7:ec:e4:23:64:
                    4e:2d:d2:32:5d:12:07:37:99:56:3a:7f:a9:97:e6:
                    df:0e:9f:4f:28:f9:32:b0:78:18:41:f0:51:07:ab:
                    ab:ae:8f:1f:0e:3e:bd:4b:42:5d:2b:93:42:ab:36:
                    ba:1c:f1:cf:b1:46:5f:85:f2:23:88:62:80:89:81:
                    be:c0:da:c6:1f:62:6a:ba:31:1b:41:cc:64:28:c0:
                    e7:b5:0c:86:b8:69:59:b7:08:a6:a5:3a:be:a1:cf:
                    04:6d:52:89:29:2c:8d:60:c6:ef:b0:9e:8d:5c:56:
                    20:3b:81:4d:09:04:e6:29:da:1e:41:6a:7b:2e:f0:
                    93:f8:e2:49:40:f3:08:64:f8:92:e3:c4:b2:c8:a4:
                    98:d7
                Exponent: 65537 (0x10001)
        X509v3 extensions:
            X509v3 Basic Constraints: 
                CA:FALSE
            Netscape Comment: 
                OpenSSL Generated Certificate
            X509v3 Subject Key Identifier: 
                D1:F2:2C:ED:EB:47:E0:8D:C9:E0:58:6E:4D:D3:AE:35:F6:73:35:46
            X509v3 Authority Key Identifier: 
                keyid:4D:E3:12:44:3A:D1:CD:1D:99:45:0B:B0:6D:FB:E6:72:F9:76:44:50

    Signature Algorithm: sha256WithRSAEncryption
         d2:99:58:83:8b:4f:3e:1a:b2:b6:59:88:e2:64:9d:51:4a:98:
         cc:86:56:05:1f:7d:5b:e1:9d:5e:6d:ad:09:1e:16:16:99:fc:
         60:37:c6:88:92:c0:90:6b:b4:0f:85:a6:b5:8d:bc:9a:66:a1:
         47:f1:ba:bc:ab:22:85:3a:d8:df:9d:fb:57:bd:9a:58:84:e9:
         c0:b4:5c:25:1a:8a:89:d3:d5:c2:1b:aa:c3:f0:f0:80:da:25:
         45:02:66:f0:a8:0c:a9:f8:86:3c:0f:ee:d1:9b:c6:ee:e5:6b:
         23:9b:fd:96:49:76:a8:d6:c7:f4:67:4e:b9:50:a8:20:0f:81:
         a2:7d
-----BEGIN CERTIFICATE-----
MIIDRTCCAq6gAwIBAgIBBTANBgkqhkiG9w0BAQsFADBvMQswCQYDVQQGEwJQVDER
MA8GA1UECAwIUG9ydHVnYWwxCzAJBgNVBAcMAkxYMRAwDgYDVQQKDAdtdGPDgsK0
MQwwCgYDVQQLDANtdGMxDDAKBgNVBAMMA210YzESMBAGCSqGSIb3DQEJARYDbXRj
MB4XDTE4MDcwOTEyMjcwOFoXDTE5MDcwOTEyMjcwOFowYTELMAkGA1UEBhMCYWEx
CzAJBgNVBAgMAmFhMQswCQYDVQQHDAJhYTELMAkGA1UECgwCYWExCzAJBgNVBAsM
AmFhMQswCQYDVQQDDAJhYTERMA8GCSqGSIb3DQEJARYCYWEwggEiMA0GCSqGSIb3
DQEBAQUAA4IBDwAwggEKAoIBAQCh0YZB/te0fygesNwjtwERZo0M/xnpwkL2fdQY
Anm6dKAvgSYjL3Ls7Ob+glVEXHfvBqWTh4eMSstB/rwgn7hvkZHG/97jIwwcy3U0
Tq9umw1EkYtl7CQRAaKMdlGc3peNFvn6gN8vBUOMPRIbTBh1E0fn7OQjZE4t0jJd
Egc3mVY6f6mX5t8On08o+TKweBhB8FEHq6uujx8OPr1LQl0rk0KrNroc8c+xRl+F
8iOIYoCJgb7A2sYfYmq6MRtBzGQowOe1DIa4aVm3CKalOr6hzwRtUokpLI1gxu+w
no1cViA7gU0JBOYp2h5Bansu8JP44klA8whk+JLjxLLIpJjXAgMBAAGjezB5MAkG
A1UdEwQCMAAwLAYJYIZIAYb4QgENBB8WHU9wZW5TU0wgR2VuZXJhdGVkIENlcnRp
ZmljYXRlMB0GA1UdDgQWBBTR8izt60fgjcngWG5N06419nM1RjAfBgNVHSMEGDAW
gBRN4xJEOtHNHZlFC7Bt++Zy+XZEUDANBgkqhkiG9w0BAQsFAAOBgQDSmViDi08+
GrK2WYjiZJ1RSpjMhlYFH31b4Z1eba0JHhYWmfxgN8aIksCQa7QPhaa1jbyaZqFH
8bq8qyKFOtjfnftXvZpYhOnAtFwlGoqJ09XCG6rD8PCA2iVFAmbwqAyp+IY8D+7R
m8bu5Wsjm/2WSXao1sf0Z065UKggD4GifQ==
-----END CERTIFICATE-----
